target datalayout = "e-m:e-p270:32:32-p271:32:32-p272:64:64-i64:64-i128:128-f80:128-n8:16:32:64-S128"
target triple = "x86_64-pc-linux-gnu"

%"struct.pkpy::Dict" = type { ptr, i32, i32, i32, i32, i32, i32, ptr, ptr }
%"struct.pkpy::Dict::Item" = type { ptr, ptr }

; Function Attrs: mustprogress uwtable
define noundef ptr @_ZNK4pkpy4Dict7try_getEPNS_8PyObjectE(ptr noundef nonnull align 8 dereferenceable(48) %0, ptr noundef %1) #7 align 2 {
  %3 = alloca ptr, align 8
  %4 = alloca ptr, align 8
  %5 = alloca ptr, align 8
  %6 = alloca i8, align 1
  %7 = alloca i32, align 4
  store ptr %0, ptr %4, align 8
  store ptr %1, ptr %5, align 8
  %8 = load ptr, ptr %4, align 8
  %9 = load ptr, ptr %5, align 8
  call void @_ZNK4pkpy4Dict8_probe_0EPNS_8PyObjectERbRi(ptr noundef nonnull align 8 dereferenceable(48) %8, ptr noundef %9, ptr noundef nonnull align 1 dereferenceable(1) %6, ptr noundef nonnull align 4 dereferenceable(4) %7)
  %10 = load i8, ptr %6, align 1
  %11 = trunc i8 %10 to i1
  br i1 %11, label %13, label %12

12:                                               ; preds = %2
  store ptr null, ptr %3, align 8
  br label %21

13:                                               ; preds = %2
  %14 = getelementptr inbounds %"struct.pkpy::Dict", ptr %8, i32 0, i32 7
  %15 = load ptr, ptr %14, align 8
  %16 = load i32, ptr %7, align 4
  %17 = sext i32 %16 to i64
  %18 = getelementptr inbounds %"struct.pkpy::Dict::Item", ptr %15, i64 %17
  %19 = getelementptr inbounds %"struct.pkpy::Dict::Item", ptr %18, i32 0, i32 1
  %20 = load ptr, ptr %19, align 8
  store ptr %20, ptr %3, align 8
  br label %21

21:                                               ; preds = %13, %12
  %22 = load ptr, ptr %3, align 8
  ret ptr %22
}