; Function Attrs: mustprogress uwtable
define noundef ptr @_ZNK4pkpy4Dict7try_getEPNS_8PyObjectE(ptr noundef nonnull align 8 dereferenceable(48) %0, ptr noundef %1) local_unnamed_addr #7 align 2 {
  %3 = alloca i8, align 1
  %4 = alloca i32, align 4
  call void @_ZNK4pkpy4Dict8_probe_0EPNS_8PyObjectERbRi(ptr noundef nonnull align 8 dereferenceable(48) %0, ptr noundef %1, ptr noundef nonnull align 1 dereferenceable(1) %3, ptr noundef nonnull align 4 dereferenceable(4) %4)
  %5 = load i8, ptr %3, align 1
  %6 = trunc i8 %5 to i1
  br i1 %6, label %7, label %14

7:                                                ; preds = %2
  %8 = getelementptr inbounds i8, ptr %0, i64 32
  %9 = load ptr, ptr %8, align 8
  %10 = load i32, ptr %4, align 4
  %11 = sext i32 %10 to i64
  %12 = getelementptr inbounds %"struct.pkpy::Dict::Item", ptr %9, i64 %11, i32 1
  %13 = load ptr, ptr %12, align 8
  br label %14

14:                                               ; preds = %2, %7
  %.0 = phi ptr [ %13, %7 ], [ null, %2 ]
  ret ptr %.0
}